; Function Attrs: nounwind uwtable
define internal noundef i32 @telnet_done(ptr noundef readonly captures(none) %0, i32 %1, i1 zeroext %2) #0 {
  %4 = getelementptr inbounds nuw i8, ptr %0, i64 440
  %5 = load ptr, ptr %4, align 8, !tbaa !79
  %.not = icmp eq ptr %5, null
  br i1 %.not, label %10, label %6

6:                                                ; preds = %3
  %7 = getelementptr inbounds nuw i8, ptr %5, i64 7200
  %8 = load ptr, ptr %7, align 8, !tbaa !95
  tail call void @curl_slist_free_all(ptr noundef %8) #9
  store ptr null, ptr %7, align 8, !tbaa !95
  %9 = getelementptr inbounds nuw i8, ptr %5, i64 7208
  tail call void @Curl_dyn_free(ptr noundef nonnull %9) #9
  br label %10

10:                                               ; preds = %3, %6
  ret i32 0
}